(ios
_Environ
p1
(dp2
S'data'
p3
(dp4
S'LIBGL_DRIVERS_PATH'
p5
S'/usr/lib32/dri:/usr/lib/dri'
p6
sS'SSH_CLIENT'
p7
S'149.160.244.161 49288 22'
p8
sS'LOGNAME'
p9
S'hussainather'
p10
sS'USER'
p11
S'hussainather'
p12
sS'HOME'
p13
S'/home/hussainather'
p14
sS'PATH'
p15
S'/home/hussainather/progressiveCactus/submodules/cactus2hal/bin:/home/hussainather/progressiveCactus/submodules/hal/bin:/home/hussainather/progressiveCactus/submodules/cactus/bin:/home/hussainather/progressiveCactus/submodules/matchingAndOrdering/bin:/home/hussainather/progressiveCactus/submodules/pinchesAndCacti/bin:/home/hussainather/progressiveCactus/submodules/jobTree/bin:/home/hussainather/progressiveCactus/submodules/sonLib/bin:/home/hussainather/progressiveCactus/submodules/hdf5/bin:/home/hussainather/progressiveCactus/submodules/kentToolBinaries:/home/hussainather/progressiveCactus/submodules/phast/bin:/home/hussainather/progressiveCactus/submodules/kyototycoon/bin:/home/hussainather/progressiveCactus/submodules/kyotocabinet/bin:/home/hussainather/progressiveCactus/submodules/tokyocabinet/bin:/home/hussainather/progressiveCactus/submodules/zlib/bin:/home/hussainather/progressiveCactus/submodules/lastz/src:/home/hussainather/progressiveCactus/submodules/lastz/tools:/home/hussainather/progressiveCactus/python/bin:/home/hussainather/progressiveCactus/python/bin:/home/hussainather/progressiveCactus/submodules/cactus2hal/bin:/home/hussainather/progressiveCactus/submodules/hal/bin:/home/hussainather/progressiveCactus/submodules/cactus/bin:/home/hussainather/progressiveCactus/submodules/matchingAndOrdering/bin:/home/hussainather/progressiveCactus/submodules/pinchesAndCacti/bin:/home/hussainather/progressiveCactus/submodules/jobTree/bin:/home/hussainather/progressiveCactus/submodules/sonLib/bin:/home/hussainather/progressiveCactus/submodules/hdf5/bin:/home/hussainather/progressiveCactus/submodules/kentToolBinaries:/home/hussainather/progressiveCactus/submodules/phast/bin:/home/hussainather/progressiveCactus/submodules/kyototycoon/bin:/home/hussainather/progressiveCactus/submodules/kyotocabinet/bin:/home/hussainather/progressiveCactus/submodules/tokyocabinet/bin:/home/hussainather/progressiveCactus/submodules/zlib/bin:/home/hussainather/progressiveCactus/submodules/lastz/src:/home/hussainather/progressiveCactus/submodules/lastz/tools:/home/hussainather/progressiveCactus/python/bin:/home/hussainather/progressiveCactus/python/bin:/home/hussainather/progressiveCactus/submodules/cactus2hal/bin:/home/hussainather/progressiveCactus/submodules/hal/bin:/home/hussainather/progressiveCactus/submodules/cactus/bin:/home/hussainather/progressiveCactus/submodules/matchingAndOrdering/bin:/home/hussainather/progressiveCactus/submodules/pinchesAndCacti/bin:/home/hussainather/progressiveCactus/submodules/jobTree/bin:/home/hussainather/progressiveCactus/submodules/sonLib/bin:/home/hussainather/progressiveCactus/submodules/hdf5/bin:/home/hussainather/progressiveCactus/submodules/kentToolBinaries:/home/hussainather/progressiveCactus/submodules/phast/bin:/home/hussainather/progressiveCactus/submodules/kyototycoon/bin:/home/hussainather/progressiveCactus/submodules/kyotocabinet/bin:/home/hussainather/progressiveCactus/submodules/tokyocabinet/bin:/home/hussainather/progressiveCactus/submodules/zlib/bin:/home/hussainather/progressiveCactus/submodules/lastz/src:/home/hussainather/progressiveCactus/submodules/lastz/tools:/home/hussainather/progressiveCactus/python/bin:/home/hussainather/progressiveCactus/python/bin:/usr/local/sbin:/usr/local/bin:/usr/sbin:/usr/bin:/sbin:/bin:/usr/games:/home/hussainather/cactus2'
p16
sS'PS1'
p17
S'(python)(python)'
p18
sS'LD_LIBRARY_PATH'
p19
S'/home/hussainather/progressiveCactus/submodules/zlib/lib:/home/hussainather/progressiveCactus/submodules/kyotocabinet/lib:/home/hussainather/progressiveCactus/submodules/kyototycoon/lib:'
p20
sS'LANG'
p21
S'en_US.UTF-8'
p22
sS'TERM'
p23
S'xterm-256color'
p24
sS'SHELL'
p25
S'/bin/bash'
p26
sS'XDG_SESSION_COOKIE'
p27
S'916b175e5f9a8f89806f3acb4e08bd69-1387220794.364767-826533804'
p28
sS'SHLVL'
p29
S'2'
sS'PYTHONPATH'
p30
S'/home/hussainather/progressiveCactus/submodules:/home/hussainather/progressiveCactus/submodules:/home/hussainather/progressiveCactus/submodules:/home/hussainather/progressiveCactus/submodules:=/usr/local/sbin:/usr/local/bin:/usr/sbin:/usr/bin:/sbin:/bin:/usr/games:/home/hussainather/cactus2/sonLib/bin:/home/hussainather/cactus2'
p31
sS'VIRTUAL_ENV'
p32
S'/home/hussainather/progressiveCactus/python'
p33
sS'_'
S'/home/hussainather/progressiveCactus/python/bin/python'
p34
sS'SSH_TTY'
p35
S'/dev/pts/0'
p36
sS'SPEECHD_PORT'
p37
S'7571'
p38
sS'PWD'
p39
S'/home/hussainather/progressiveCactus'
p40
sS'SON_TRACE_DATASETS'
p41
S'/home/hussainather/progressiveCactus/submodules/cactusTestData'
p42
sS'MAIL'
p43
S'/var/mail/hussainather'
p44
sS'SSH_CONNECTION'
p45
S'149.160.244.161 49288 129.79.232.174 22'
p46
ssb.